; Function Attrs: nofree norecurse nosync nounwind uwtable
define range(i64 0, 4294967296) i64 @zfp_decode_block_strided_int64_1(ptr noundef readonly captures(none) %0, ptr noundef writeonly captures(none) %1, i64 noundef %2) local_unnamed_addr #0 {
  %4 = alloca [4 x i64], align 256
  call void @llvm.lifetime.start.p0(i64 32, ptr nonnull %4) #6
  %5 = call i64 @zfp_decode_block_int64_1(ptr noundef %0, ptr noundef nonnull %4)
  br label %6

6:                                                ; preds = %6, %3
  %.09.i = phi i32 [ 0, %3 ], [ %9, %6 ]
  %.058.i = phi ptr [ %4, %3 ], [ %7, %6 ]
  %.067.i = phi ptr [ %1, %3 ], [ %10, %6 ]
  %7 = getelementptr inbounds nuw i8, ptr %.058.i, i64 8
  %8 = load i64, ptr %.058.i, align 8, !tbaa !21
  store i64 %8, ptr %.067.i, align 8, !tbaa !21
  %9 = add nuw nsw i32 %.09.i, 1
  %10 = getelementptr inbounds i64, ptr %.067.i, i64 %2
  %exitcond.not.i = icmp eq i32 %9, 4
  br i1 %exitcond.not.i, label %scatter_int64_1.exit, label %6

scatter_int64_1.exit:                             ; preds = %6
  call void @llvm.lifetime.end.p0(i64 32, ptr nonnull %4) #6
  ret i64 %5
}